; Function Attrs: mustprogress nofree norecurse nosync nounwind willreturn memory(read, argmem: readwrite, inaccessiblemem: none) uwtable
define dso_local void @_ZN16btITaskScheduler10deactivateEv(ptr noundef nonnull align 8 captures(none) dereferenceable(21) %0) unnamed_addr #6 align 2 {
  %2 = getelementptr inbounds nuw i8, ptr %0, i64 20
  %3 = load i8, ptr %2, align 4, !tbaa !19, !range !20, !noundef !21
  %4 = trunc nuw i8 %3 to i1
  br i1 %4, label %5, label %8

5:                                                ; preds = %1
  %6 = load i32, ptr @_ZL14gThreadCounter.0, align 4, !tbaa !8
  %7 = getelementptr inbounds nuw i8, ptr %0, i64 16
  store i32 %6, ptr %7, align 8, !tbaa !18
  store i8 0, ptr %2, align 4, !tbaa !19
  br label %8

8:                                                ; preds = %5, %1
  ret void
}